target datalayout = "e-m:e-p270:32:32-p271:32:32-p272:64:64-i64:64-i128:128-f80:128-n8:16:32:64-S128"
target triple = "x86_64-pc-linux-gnu"

%struct.ForEachState = type { ptr, i32 }
%struct.Node = type { i32 }
%struct.List = type { i32, i32, i32, ptr, [0 x %union.ListCell] }
%union.ListCell = type { ptr }
%struct.PlannerInfo = type { i32, ptr, ptr, i32, ptr, ptr, ptr, ptr, i32, ptr, ptr, ptr, ptr, ptr, ptr, ptr, ptr, i32, ptr, ptr, ptr, ptr, ptr, i8, ptr, ptr, ptr, ptr, ptr, i32, ptr, ptr, ptr, ptr, ptr, ptr, ptr, i32, ptr, ptr, ptr, i32, ptr, ptr, ptr, ptr, ptr, ptr, [8 x ptr], [8 x ptr], ptr, ptr, ptr, ptr, ptr, ptr, ptr, double, double, double, i32, i8, i8, i8, i8, i8, i8, i8, i32, ptr, ptr, i32, i8, i8, i32, ptr, ptr, ptr, ptr, ptr, ptr, i8, ptr }
%struct.RelOptInfo = type { i32, i32, ptr, double, i8, i8, i8, ptr, ptr, ptr, ptr, ptr, ptr, ptr, ptr, ptr, ptr, i32, i32, i32, i16, i16, ptr, ptr, ptr, ptr, ptr, ptr, ptr, ptr, i32, double, double, ptr, ptr, ptr, i32, i32, i32, i32, i8, ptr, ptr, ptr, ptr, ptr, %struct.QualCost, i32, ptr, i8, i8, ptr, ptr, ptr, ptr, i32, ptr, i8, ptr, ptr, ptr, ptr, ptr, ptr }
%struct.QualCost = type { double, double }
%struct.RangeTblEntry = type { i32, ptr, ptr, i32, i32, i8, i8, i32, i32, ptr, ptr, i8, i32, i32, ptr, ptr, ptr, ptr, ptr, i8, ptr, ptr, ptr, i32, i8, ptr, ptr, ptr, ptr, double, ptr, i8, i8, ptr }
%struct.Var = type { %struct.Expr, i32, i16, i32, i32, i32, ptr, i32, i32, i32, i16, i32 }
%struct.Expr = type { i32 }
%struct.PlaceHolderVar = type { %struct.Expr, ptr, ptr, ptr, i32, i32 }

; Function Attrs: nounwind uwtable
define internal void @extract_lateral_references(ptr noundef %0, ptr noundef %1, i32 noundef %2) #0 {
  %4 = alloca ptr, align 8
  %5 = alloca ptr, align 8
  %6 = alloca i32, align 4
  %7 = alloca ptr, align 8
  %8 = alloca ptr, align 8
  %9 = alloca ptr, align 8
  %10 = alloca ptr, align 8
  %11 = alloca ptr, align 8
  %12 = alloca i32, align 4
  %13 = alloca %struct.ForEachState, align 8
  %14 = alloca ptr, align 8
  %15 = alloca ptr, align 8
  %16 = alloca ptr, align 8
  %17 = alloca i32, align 4
  store ptr %0, ptr %4, align 8
  store ptr %1, ptr %5, align 8
  store i32 %2, ptr %6, align 4
  call void @llvm.lifetime.start.p0(i64 8, ptr %7) #6
  %18 = load ptr, ptr %4, align 8
  %19 = getelementptr inbounds nuw %struct.PlannerInfo, ptr %18, i32 0, i32 9
  %20 = load ptr, ptr %19, align 8
  %21 = load i32, ptr %6, align 4
  %22 = zext i32 %21 to i64
  %23 = getelementptr inbounds nuw ptr, ptr %20, i64 %22
  %24 = load ptr, ptr %23, align 8
  store ptr %24, ptr %7, align 8
  call void @llvm.lifetime.start.p0(i64 8, ptr %8) #6
  call void @llvm.lifetime.start.p0(i64 8, ptr %9) #6
  call void @llvm.lifetime.start.p0(i64 8, ptr %10) #6
  call void @llvm.lifetime.start.p0(i64 8, ptr %11) #6
  %25 = load ptr, ptr %7, align 8
  %26 = getelementptr inbounds nuw %struct.RangeTblEntry, ptr %25, i32 0, i32 31
  %27 = load i8, ptr %26, align 8, !range !6, !noundef !7
  %28 = trunc i8 %27 to i1
  br i1 %28, label %30, label %29

29:                                               ; preds = %3
  store i32 1, ptr %12, align 4
  br label %181

30:                                               ; preds = %3
  %31 = load ptr, ptr %7, align 8
  %32 = getelementptr inbounds nuw %struct.RangeTblEntry, ptr %31, i32 0, i32 3
  %33 = load i32, ptr %32, align 8
  %34 = icmp eq i32 %33, 0
  br i1 %34, label %35, label %40

35:                                               ; preds = %30
  %36 = load ptr, ptr %7, align 8
  %37 = getelementptr inbounds nuw %struct.RangeTblEntry, ptr %36, i32 0, i32 9
  %38 = load ptr, ptr %37, align 8
  %39 = call ptr @pull_vars_of_level(ptr noundef %38, i32 noundef 0)
  store ptr %39, ptr %8, align 8
  br label %85

40:                                               ; preds = %30
  %41 = load ptr, ptr %7, align 8
  %42 = getelementptr inbounds nuw %struct.RangeTblEntry, ptr %41, i32 0, i32 3
  %43 = load i32, ptr %42, align 8
  %44 = icmp eq i32 %43, 1
  br i1 %44, label %45, label %50

45:                                               ; preds = %40
  %46 = load ptr, ptr %7, align 8
  %47 = getelementptr inbounds nuw %struct.RangeTblEntry, ptr %46, i32 0, i32 10
  %48 = load ptr, ptr %47, align 8
  %49 = call ptr @pull_vars_of_level(ptr noundef %48, i32 noundef 1)
  store ptr %49, ptr %8, align 8
  br label %84

50:                                               ; preds = %40
  %51 = load ptr, ptr %7, align 8
  %52 = getelementptr inbounds nuw %struct.RangeTblEntry, ptr %51, i32 0, i32 3
  %53 = load i32, ptr %52, align 8
  %54 = icmp eq i32 %53, 3
  br i1 %54, label %55, label %60

55:                                               ; preds = %50
  %56 = load ptr, ptr %7, align 8
  %57 = getelementptr inbounds nuw %struct.RangeTblEntry, ptr %56, i32 0, i32 18
  %58 = load ptr, ptr %57, align 8
  %59 = call ptr @pull_vars_of_level(ptr noundef %58, i32 noundef 0)
  store ptr %59, ptr %8, align 8
  br label %83

60:                                               ; preds = %50
  %61 = load ptr, ptr %7, align 8
  %62 = getelementptr inbounds nuw %struct.RangeTblEntry, ptr %61, i32 0, i32 3
  %63 = load i32, ptr %62, align 8
  %64 = icmp eq i32 %63, 4
  br i1 %64, label %65, label %70

65:                                               ; preds = %60
  %66 = load ptr, ptr %7, align 8
  %67 = getelementptr inbounds nuw %struct.RangeTblEntry, ptr %66, i32 0, i32 20
  %68 = load ptr, ptr %67, align 8
  %69 = call ptr @pull_vars_of_level(ptr noundef %68, i32 noundef 0)
  store ptr %69, ptr %8, align 8
  br label %82

70:                                               ; preds = %60
  %71 = load ptr, ptr %7, align 8
  %72 = getelementptr inbounds nuw %struct.RangeTblEntry, ptr %71, i32 0, i32 3
  %73 = load i32, ptr %72, align 8
  %74 = icmp eq i32 %73, 5
  br i1 %74, label %75, label %80

75:                                               ; preds = %70
  %76 = load ptr, ptr %7, align 8
  %77 = getelementptr inbounds nuw %struct.RangeTblEntry, ptr %76, i32 0, i32 21
  %78 = load ptr, ptr %77, align 8
  %79 = call ptr @pull_vars_of_level(ptr noundef %78, i32 noundef 0)
  store ptr %79, ptr %8, align 8
  br label %81

80:                                               ; preds = %70
  store i32 1, ptr %12, align 4
  br label %181

81:                                               ; preds = %75
  br label %82

82:                                               ; preds = %81, %65
  br label %83

83:                                               ; preds = %82, %55
  br label %84

84:                                               ; preds = %83, %45
  br label %85

85:                                               ; preds = %84, %35
  %86 = load ptr, ptr %8, align 8
  %87 = icmp eq ptr %86, null
  br i1 %87, label %88, label %89

88:                                               ; preds = %85
  store i32 1, ptr %12, align 4
  br label %181

89:                                               ; preds = %85
  store ptr null, ptr %9, align 8
  call void @llvm.lifetime.start.p0(i64 16, ptr %13) #6
  %90 = getelementptr inbounds nuw %struct.ForEachState, ptr %13, i32 0, i32 0
  %91 = load ptr, ptr %8, align 8
  store ptr %91, ptr %90, align 8
  %92 = getelementptr inbounds nuw %struct.ForEachState, ptr %13, i32 0, i32 1
  store i32 0, ptr %92, align 8
  %93 = getelementptr i8, ptr %13, i64 12
  call void @llvm.memset.p0.i64(ptr align 4 %93, i8 0, i64 4, i1 false)
  br label %94

94:                                               ; preds = %167, %89
  %95 = getelementptr inbounds nuw %struct.ForEachState, ptr %13, i32 0, i32 0
  %96 = load ptr, ptr %95, align 8
  %97 = icmp ne ptr %96, null
  br i1 %97, label %98, label %115

98:                                               ; preds = %94
  %99 = getelementptr inbounds nuw %struct.ForEachState, ptr %13, i32 0, i32 1
  %100 = load i32, ptr %99, align 8
  %101 = getelementptr inbounds nuw %struct.ForEachState, ptr %13, i32 0, i32 0
  %102 = load ptr, ptr %101, align 8
  %103 = getelementptr inbounds nuw %struct.List, ptr %102, i32 0, i32 1
  %104 = load i32, ptr %103, align 4
  %105 = icmp slt i32 %100, %104
  br i1 %105, label %106, label %115

106:                                              ; preds = %98
  %107 = getelementptr inbounds nuw %struct.ForEachState, ptr %13, i32 0, i32 0
  %108 = load ptr, ptr %107, align 8
  %109 = getelementptr inbounds nuw %struct.List, ptr %108, i32 0, i32 3
  %110 = load ptr, ptr %109, align 8
  %111 = getelementptr inbounds nuw %struct.ForEachState, ptr %13, i32 0, i32 1
  %112 = load i32, ptr %111, align 8
  %113 = sext i32 %112 to i64
  %114 = getelementptr inbounds %union.ListCell, ptr %110, i64 %113
  store ptr %114, ptr %11, align 8
  br label %116

115:                                              ; preds = %98, %94
  store ptr null, ptr %11, align 8
  br label %116

116:                                              ; preds = %115, %106
  %117 = phi i32 [ 1, %106 ], [ 0, %115 ]
  %118 = icmp ne i32 %117, 0
  br i1 %118, label %120, label %119

119:                                              ; preds = %116
  store i32 2, ptr %12, align 4
  call void @llvm.lifetime.end.p0(i64 16, ptr %13) #6
  br label %171

120:                                              ; preds = %116
  call void @llvm.lifetime.start.p0(i64 8, ptr %14) #6
  %121 = load ptr, ptr %11, align 8
  %122 = load ptr, ptr %121, align 8
  store ptr %122, ptr %14, align 8
  %123 = load ptr, ptr %14, align 8
  %124 = call ptr @copyObjectImpl(ptr noundef %123)
  store ptr %124, ptr %14, align 8
  %125 = load ptr, ptr %14, align 8
  %126 = getelementptr inbounds nuw %struct.Node, ptr %125, i32 0, i32 0
  %127 = load i32, ptr %126, align 4
  %128 = icmp eq i32 %127, 6
  br i1 %128, label %129, label %133

129:                                              ; preds = %120
  call void @llvm.lifetime.start.p0(i64 8, ptr %15) #6
  %130 = load ptr, ptr %14, align 8
  store ptr %130, ptr %15, align 8
  %131 = load ptr, ptr %15, align 8
  %132 = getelementptr inbounds nuw %struct.Var, ptr %131, i32 0, i32 7
  store i32 0, ptr %132, align 8
  call void @llvm.lifetime.end.p0(i64 8, ptr %15) #6
  br label %163

133:                                              ; preds = %120
  %134 = load ptr, ptr %14, align 8
  %135 = getelementptr inbounds nuw %struct.Node, ptr %134, i32 0, i32 0
  %136 = load i32, ptr %135, align 4
  %137 = icmp eq i32 %136, 318
  br i1 %137, label %138, label %161

138:                                              ; preds = %133
  call void @llvm.lifetime.start.p0(i64 8, ptr %16) #6
  %139 = load ptr, ptr %14, align 8
  store ptr %139, ptr %16, align 8
  call void @llvm.lifetime.start.p0(i64 4, ptr %17) #6
  %140 = load ptr, ptr %16, align 8
  %141 = getelementptr inbounds nuw %struct.PlaceHolderVar, ptr %140, i32 0, i32 5
  %142 = load i32, ptr %141, align 4
  store i32 %142, ptr %17, align 4
  %143 = load i32, ptr %17, align 4
  %144 = icmp ne i32 %143, 0
  br i1 %144, label %145, label %149

145:                                              ; preds = %138
  %146 = load ptr, ptr %14, align 8
  %147 = load i32, ptr %17, align 4
  %148 = sub i32 0, %147
  call void @IncrementVarSublevelsUp(ptr noundef %146, i32 noundef %148, i32 noundef 0)
  br label %149

149:                                              ; preds = %145, %138
  %150 = load i32, ptr %17, align 4
  %151 = icmp sgt i32 %150, 0
  br i1 %151, label %152, label %160

152:                                              ; preds = %149
  %153 = load ptr, ptr %4, align 8
  %154 = load ptr, ptr %16, align 8
  %155 = getelementptr inbounds nuw %struct.PlaceHolderVar, ptr %154, i32 0, i32 1
  %156 = load ptr, ptr %155, align 8
  %157 = call ptr @preprocess_phv_expression(ptr noundef %153, ptr noundef %156)
  %158 = load ptr, ptr %16, align 8
  %159 = getelementptr inbounds nuw %struct.PlaceHolderVar, ptr %158, i32 0, i32 1
  store ptr %157, ptr %159, align 8
  br label %160

160:                                              ; preds = %152, %149
  call void @llvm.lifetime.end.p0(i64 4, ptr %17) #6
  call void @llvm.lifetime.end.p0(i64 8, ptr %16) #6
  br label %162

161:                                              ; preds = %133
  br label %162

162:                                              ; preds = %161, %160
  br label %163

163:                                              ; preds = %162, %129
  %164 = load ptr, ptr %9, align 8
  %165 = load ptr, ptr %14, align 8
  %166 = call ptr @lappend(ptr noundef %164, ptr noundef %165)
  store ptr %166, ptr %9, align 8
  call void @llvm.lifetime.end.p0(i64 8, ptr %14) #6
  br label %167

167:                                              ; preds = %163
  %168 = getelementptr inbounds nuw %struct.ForEachState, ptr %13, i32 0, i32 1
  %169 = load i32, ptr %168, align 8
  %170 = add i32 %169, 1
  store i32 %170, ptr %168, align 8
  br label %94, !llvm.loop !18

171:                                              ; preds = %119
  %172 = load ptr, ptr %8, align 8
  call void @list_free(ptr noundef %172)
  %173 = load i32, ptr %6, align 4
  %174 = call ptr @bms_make_singleton(i32 noundef %173)
  store ptr %174, ptr %10, align 8
  %175 = load ptr, ptr %4, align 8
  %176 = load ptr, ptr %9, align 8
  %177 = load ptr, ptr %10, align 8
  call void @add_vars_to_targetlist(ptr noundef %175, ptr noundef %176, ptr noundef %177)
  %178 = load ptr, ptr %9, align 8
  %179 = load ptr, ptr %5, align 8
  %180 = getelementptr inbounds nuw %struct.RelOptInfo, ptr %179, i32 0, i32 26
  store ptr %178, ptr %180, align 8
  store i32 0, ptr %12, align 4
  br label %181

181:                                              ; preds = %171, %88, %80, %29
  call void @llvm.lifetime.end.p0(i64 8, ptr %11) #6
  call void @llvm.lifetime.end.p0(i64 8, ptr %10) #6
  call void @llvm.lifetime.end.p0(i64 8, ptr %9) #6
  call void @llvm.lifetime.end.p0(i64 8, ptr %8) #6
  call void @llvm.lifetime.end.p0(i64 8, ptr %7) #6
  %182 = load i32, ptr %12, align 4
  switch i32 %182, label %184 [
    i32 0, label %183
    i32 1, label %183
  ]

183:                                              ; preds = %181, %181
  ret void

184:                                              ; preds = %181
  unreachable
}

; Function Attrs: nounwind uwtable
define dso_local void @find_lateral_references(ptr noundef %0) #0 {
  %2 = alloca ptr, align 8
  %3 = alloca i32, align 4
  %4 = alloca i32, align 4
  %5 = alloca ptr, align 8
  store ptr %0, ptr %2, align 8
  call void @llvm.lifetime.start.p0(i64 4, ptr %3) #6
  %6 = load ptr, ptr %2, align 8
  %7 = getelementptr inbounds nuw %struct.PlannerInfo, ptr %6, i32 0, i32 62
  %8 = load i8, ptr %7, align 1, !range !6, !noundef !7
  %9 = trunc i8 %8 to i1
  br i1 %9, label %11, label %10

10:                                               ; preds = %1
  store i32 1, ptr %4, align 4
  br label %46

11:                                               ; preds = %1
  store i32 1, ptr %3, align 4
  br label %12

12:                                               ; preds = %42, %11
  %13 = load i32, ptr %3, align 4
  %14 = load ptr, ptr %2, align 8
  %15 = getelementptr inbounds nuw %struct.PlannerInfo, ptr %14, i32 0, i32 8
  %16 = load i32, ptr %15, align 8
  %17 = icmp ult i32 %13, %16
  br i1 %17, label %18, label %45

18:                                               ; preds = %12
  call void @llvm.lifetime.start.p0(i64 8, ptr %5) #6
  %19 = load ptr, ptr %2, align 8
  %20 = getelementptr inbounds nuw %struct.PlannerInfo, ptr %19, i32 0, i32 7
  %21 = load ptr, ptr %20, align 8
  %22 = load i32, ptr %3, align 4
  %23 = zext i32 %22 to i64
  %24 = getelementptr inbounds nuw ptr, ptr %21, i64 %23
  %25 = load ptr, ptr %24, align 8
  store ptr %25, ptr %5, align 8
  %26 = load ptr, ptr %5, align 8
  %27 = icmp eq ptr %26, null
  br i1 %27, label %28, label %29

28:                                               ; preds = %18
  store i32 4, ptr %4, align 4
  br label %39

29:                                               ; preds = %18
  %30 = load ptr, ptr %5, align 8
  %31 = getelementptr inbounds nuw %struct.RelOptInfo, ptr %30, i32 0, i32 1
  %32 = load i32, ptr %31, align 4
  %33 = icmp ne i32 %32, 0
  br i1 %33, label %34, label %35

34:                                               ; preds = %29
  store i32 4, ptr %4, align 4
  br label %39

35:                                               ; preds = %29
  %36 = load ptr, ptr %2, align 8
  %37 = load ptr, ptr %5, align 8
  %38 = load i32, ptr %3, align 4
  call void @extract_lateral_references(ptr noundef %36, ptr noundef %37, i32 noundef %38)
  store i32 0, ptr %4, align 4
  br label %39

39:                                               ; preds = %35, %34, %28
  call void @llvm.lifetime.end.p0(i64 8, ptr %5) #6
  %40 = load i32, ptr %4, align 4
  switch i32 %40, label %49 [
    i32 0, label %41
    i32 4, label %42
  ]

41:                                               ; preds = %39
  br label %42

42:                                               ; preds = %41, %39
  %43 = load i32, ptr %3, align 4
  %44 = add i32 %43, 1
  store i32 %44, ptr %3, align 4
  br label %12, !llvm.loop !17

45:                                               ; preds = %12
  store i32 0, ptr %4, align 4
  br label %46

46:                                               ; preds = %45, %10
  call void @llvm.lifetime.end.p0(i64 4, ptr %3) #6
  %47 = load i32, ptr %4, align 4
  switch i32 %47, label %49 [
    i32 0, label %48
    i32 1, label %48
  ]

48:                                               ; preds = %46, %46
  ret void

49:                                               ; preds = %46, %39
  unreachable
}