; Function Attrs: nounwind uwtable
define dso_local void @find_lateral_references(ptr noundef %0) local_unnamed_addr #0 {
  %2 = getelementptr inbounds nuw i8, ptr %0, i64 597
  %3 = load i8, ptr %2, align 1, !range !4, !noundef !5
  %4 = trunc nuw i8 %3 to i1
  br i1 %4, label %.preheader, label %.loopexit

.preheader:                                       ; preds = %1
  %5 = getelementptr inbounds nuw i8, ptr %0, i64 64
  %6 = load i32, ptr %5, align 8
  %7 = icmp ugt i32 %6, 1
  br i1 %7, label %.lr.ph, label %.loopexit

.lr.ph:                                           ; preds = %.preheader
  %8 = getelementptr inbounds nuw i8, ptr %0, i64 56
  %9 = getelementptr inbounds nuw i8, ptr %0, i64 72
  br label %10

10:                                               ; preds = %.lr.ph, %extract_lateral_references.exit
  %indvars.iv = phi i64 [ 1, %.lr.ph ], [ %indvars.iv.next, %extract_lateral_references.exit ]
  %11 = load ptr, ptr %8, align 8
  %12 = getelementptr inbounds nuw ptr, ptr %11, i64 %indvars.iv
  %13 = load ptr, ptr %12, align 8
  %14 = icmp eq ptr %13, null
  br i1 %14, label %extract_lateral_references.exit, label %15

15:                                               ; preds = %10
  %16 = getelementptr inbounds nuw i8, ptr %13, i64 4
  %17 = load i32, ptr %16, align 4
  %.not = icmp eq i32 %17, 0
  br i1 %.not, label %18, label %extract_lateral_references.exit

18:                                               ; preds = %15
  %19 = load ptr, ptr %9, align 8
  %20 = getelementptr inbounds nuw ptr, ptr %19, i64 %indvars.iv
  %21 = load ptr, ptr %20, align 8
  %22 = getelementptr inbounds nuw i8, ptr %21, i64 208
  %23 = load i8, ptr %22, align 8, !range !4, !noundef !5
  %24 = trunc nuw i8 %23 to i1
  br i1 %24, label %25, label %extract_lateral_references.exit

25:                                               ; preds = %18
  %26 = getelementptr inbounds nuw i8, ptr %21, i64 24
  %27 = load i32, ptr %26, align 8
  %28 = icmp ult i32 %27, 6
  br i1 %28, label %switch.hole_check, label %extract_lateral_references.exit

switch.hole_check:                                ; preds = %25
  %switch.maskindex = trunc nuw i32 %27 to i8
  %switch.shifted = lshr i8 59, %switch.maskindex
  %switch.lobit = trunc i8 %switch.shifted to i1
  br i1 %switch.lobit, label %switch.lookup, label %extract_lateral_references.exit

switch.lookup:                                    ; preds = %switch.hole_check
  %29 = zext nneg i32 %27 to i64
  %switch.gep = getelementptr inbounds nuw [6 x i64], ptr @switch.table.find_lateral_references, i64 0, i64 %29
  %switch.load = load i64, ptr %switch.gep, align 8
  %30 = zext nneg i32 %27 to i64
  %switch.gep13 = getelementptr inbounds nuw [6 x i32], ptr @switch.table.find_lateral_references.5, i64 0, i64 %30
  %switch.load14 = load i32, ptr %switch.gep13, align 4
  %31 = getelementptr inbounds nuw i8, ptr %21, i64 %switch.load
  %32 = load ptr, ptr %31, align 8
  %33 = tail call ptr @pull_vars_of_level(ptr noundef %32, i32 noundef %switch.load14) #7
  %34 = icmp eq ptr %33, null
  br i1 %34, label %extract_lateral_references.exit, label %.preheader.i

.preheader.i:                                     ; preds = %switch.lookup
  %35 = getelementptr inbounds nuw i8, ptr %33, i64 4
  %36 = load i32, ptr %35, align 4
  %.not51.i = icmp sgt i32 %36, 0
  br i1 %.not51.i, label %.lr.ph.i, label %._crit_edge.i

.lr.ph.i:                                         ; preds = %.preheader.i
  %37 = getelementptr inbounds nuw i8, ptr %33, i64 16
  br label %41

._crit_edge.i:                                    ; preds = %.thread50.i, %.preheader.i
  %.042.lcssa.i = phi ptr [ null, %.preheader.i ], [ %59, %.thread50.i ]
  tail call void @list_free(ptr noundef nonnull %33) #7
  %38 = trunc nuw i64 %indvars.iv to i32
  %39 = tail call ptr @bms_make_singleton(i32 noundef %38) #7
  tail call void @add_vars_to_targetlist(ptr noundef %0, ptr noundef %.042.lcssa.i, ptr noundef %39)
  %40 = getelementptr inbounds nuw i8, ptr %13, i64 160
  store ptr %.042.lcssa.i, ptr %40, align 8
  br label %extract_lateral_references.exit

41:                                               ; preds = %.thread50.i, %.lr.ph.i
  %indvars.iv.i = phi i64 [ 0, %.lr.ph.i ], [ %indvars.iv.next.i, %.thread50.i ]
  %.04253.i = phi ptr [ null, %.lr.ph.i ], [ %59, %.thread50.i ]
  %42 = load ptr, ptr %37, align 8
  %43 = getelementptr inbounds nuw %union.ListCell, ptr %42, i64 %indvars.iv.i
  %44 = load ptr, ptr %43, align 8
  %45 = tail call ptr @copyObjectImpl(ptr noundef %44) #7
  %46 = load i32, ptr %45, align 4
  switch i32 %46, label %.thread50.i [
    i32 6, label %47
    i32 318, label %49
  ]

47:                                               ; preds = %41
  %48 = getelementptr inbounds nuw i8, ptr %45, i64 32
  store i32 0, ptr %48, align 8
  br label %.thread50.i

49:                                               ; preds = %41
  %50 = getelementptr inbounds nuw i8, ptr %45, i64 36
  %51 = load i32, ptr %50, align 4
  %.not47.i = icmp eq i32 %51, 0
  br i1 %.not47.i, label %.thread50.i, label %52

52:                                               ; preds = %49
  %53 = sub i32 0, %51
  tail call void @IncrementVarSublevelsUp(ptr noundef nonnull %45, i32 noundef %53, i32 noundef 0) #7
  %54 = icmp sgt i32 %51, 0
  br i1 %54, label %55, label %.thread50.i

55:                                               ; preds = %52
  %56 = getelementptr inbounds nuw i8, ptr %45, i64 8
  %57 = load ptr, ptr %56, align 8
  %58 = tail call ptr @preprocess_phv_expression(ptr noundef %0, ptr noundef %57) #7
  store ptr %58, ptr %56, align 8
  br label %.thread50.i

.thread50.i:                                      ; preds = %55, %52, %49, %47, %41
  %59 = tail call ptr @lappend(ptr noundef %.04253.i, ptr noundef nonnull %45) #7
  %indvars.iv.next.i = add nuw nsw i64 %indvars.iv.i, 1
  %60 = load i32, ptr %35, align 4
  %61 = sext i32 %60 to i64
  %.not.i = icmp slt i64 %indvars.iv.next.i, %61
  br i1 %.not.i, label %41, label %._crit_edge.i, !llvm.loop !9

extract_lateral_references.exit:                  ; preds = %switch.hole_check, %25, %._crit_edge.i, %switch.lookup, %18, %15, %10
  %indvars.iv.next = add nuw nsw i64 %indvars.iv, 1
  %62 = load i32, ptr %5, align 8
  %63 = zext i32 %62 to i64
  %64 = icmp samesign ult i64 %indvars.iv.next, %63
  br i1 %64, label %10, label %.loopexit, !llvm.loop !10

.loopexit:                                        ; preds = %extract_lateral_references.exit, %.preheader, %1
  ret void
}